(dp1
S'classes'
p2
(dp3
S'0'
(dp4
S'invert'
p5
I00
sS'type'
p6
I0
sS'low_thr'
p7
F140
sS'high_thr'
p8
F255
ssS'5'
(dp9
S'color'
p10
I75
sS'space'
p11
I75
sS'size'
p12
I9
sssS'obj'
p13
(lp14
I0
aI1
asS'contour'
p15
(dp16
S'params'
p17
(dp18
S'maxGap'
p19
I100
sS'theta'
p20
I180
sS'thresh'
p21
I30
sS'rho'
p22
I1
sS'minLength'
p23
I100
ssg6
I1
ssS'filters'
p24
(lp25
S'5'
aS'0'
asS'prop'
p26
(dp27
S'roi'
p28
I00
sS'scale'
p29
F0.29999999999999999
sS'grey'
p30
I01
sS'inverted'
p31
I00
ss.